target datalayout = "e-m:e-p270:32:32-p271:32:32-p272:64:64-i64:64-i128:128-f80:128-n8:16:32:64-S128"
target triple = "x86_64-pc-linux-gnu"

%struct.slurm_topo_ops = type { ptr, ptr, ptr, ptr, ptr, ptr, ptr, ptr, ptr, ptr, ptr, ptr, ptr, ptr }
%struct.dynamic_plugin_data = type { ptr, i32 }

@ops = internal global %struct.slurm_topo_ops zeroinitializer, align 8
@active_topo_id = internal global i32 0, align 4
@.str.7 = private unnamed_addr constant [11 x i8] c"topology.c\00", align 1
@__func__.topology_g_topology_unpack = private unnamed_addr constant [27 x i8] c"topology_g_topology_unpack\00", align 1
@.str.8 = private unnamed_addr constant [34 x i8] c"%s: topology plugin %u not active\00", align 1
@.str.9 = private unnamed_addr constant [39 x i8] c"%s: protocol_version %hu not supported\00", align 1
@.str.10 = private unnamed_addr constant [17 x i8] c"%s: unpack error\00", align 1

; Function Attrs: nounwind uwtable
define dso_local i32 @topology_g_topology_free(ptr noundef %0) #0 {
  %2 = alloca ptr, align 8
  %3 = alloca i32, align 4
  store ptr %0, ptr %2, align 8
  call void @llvm.lifetime.start.p0(i64 4, ptr %3) #7
  store i32 0, ptr %3, align 4
  %4 = load ptr, ptr %2, align 8
  %5 = icmp ne ptr %4, null
  br i1 %5, label %6, label %18

6:                                                ; preds = %1
  %7 = load ptr, ptr %2, align 8
  %8 = getelementptr inbounds nuw %struct.dynamic_plugin_data, ptr %7, i32 0, i32 0
  %9 = load ptr, ptr %8, align 8
  %10 = icmp ne ptr %9, null
  br i1 %10, label %11, label %17

11:                                               ; preds = %6
  %12 = load ptr, ptr getelementptr inbounds nuw (%struct.slurm_topo_ops, ptr @ops, i32 0, i32 8), align 8
  %13 = load ptr, ptr %2, align 8
  %14 = getelementptr inbounds nuw %struct.dynamic_plugin_data, ptr %13, i32 0, i32 0
  %15 = load ptr, ptr %14, align 8
  %16 = call i32 %12(ptr noundef %15)
  store i32 %16, ptr %3, align 4
  br label %17

17:                                               ; preds = %11, %6
  call void @slurm_xfree(ptr noundef %2)
  br label %18

18:                                               ; preds = %17, %1
  %19 = load i32, ptr %3, align 4
  call void @llvm.lifetime.end.p0(i64 4, ptr %3) #7
  ret i32 %19
}

; Function Attrs: nounwind uwtable
define dso_local i32 @topology_g_topology_unpack(ptr noundef %0, ptr noundef %1, i16 noundef zeroext %2) #0 {
  %4 = alloca i32, align 4
  %5 = alloca ptr, align 8
  %6 = alloca ptr, align 8
  %7 = alloca i16, align 2
  %8 = alloca ptr, align 8
  %9 = alloca i32, align 4
  %10 = alloca i32, align 4
  store ptr %0, ptr %5, align 8
  store ptr %1, ptr %6, align 8
  store i16 %2, ptr %7, align 2
  call void @llvm.lifetime.start.p0(i64 8, ptr %8) #7
  store ptr null, ptr %8, align 8
  %11 = call ptr @slurm_xcalloc(i64 noundef 1, i64 noundef 16, i1 noundef zeroext true, i1 noundef zeroext false, ptr noundef @.str.7, i32 noundef 318, ptr noundef @__func__.topology_g_topology_unpack)
  store ptr %11, ptr %8, align 8
  %12 = load ptr, ptr %8, align 8
  %13 = load ptr, ptr %5, align 8
  store ptr %12, ptr %13, align 8
  %14 = load i16, ptr %7, align 2
  %15 = zext i16 %14 to i32
  %16 = icmp sge i32 %15, 10240
  br i1 %16, label %17, label %40

17:                                               ; preds = %3
  call void @llvm.lifetime.start.p0(i64 4, ptr %9) #7
  br label %18

18:                                               ; preds = %17
  %19 = load ptr, ptr %6, align 8
  %20 = call i32 @unpack32(ptr noundef %9, ptr noundef %19)
  %21 = icmp ne i32 %20, 0
  br i1 %21, label %22, label %23

22:                                               ; preds = %18
  store i32 4, ptr %10, align 4
  br label %37

23:                                               ; preds = %18
  br label %24

24:                                               ; preds = %23
  br label %25

25:                                               ; preds = %24
  %26 = load i32, ptr %9, align 4
  %27 = load i32, ptr @active_topo_id, align 4
  %28 = icmp ne i32 %26, %27
  br i1 %28, label %29, label %32

29:                                               ; preds = %25
  %30 = load i32, ptr %9, align 4
  %31 = call i32 (ptr, ...) @error(ptr noundef @.str.8, ptr noundef @__func__.topology_g_topology_unpack, i32 noundef %30)
  store i32 4, ptr %10, align 4
  br label %37

32:                                               ; preds = %25
  %33 = load i32, ptr @active_topo_id, align 4
  %34 = load ptr, ptr %8, align 8
  %35 = getelementptr inbounds nuw %struct.dynamic_plugin_data, ptr %34, i32 0, i32 1
  store i32 %33, ptr %35, align 8
  br label %36

36:                                               ; preds = %32
  store i32 0, ptr %10, align 4
  br label %37

37:                                               ; preds = %29, %22, %36
  call void @llvm.lifetime.end.p0(i64 4, ptr %9) #7
  %38 = load i32, ptr %10, align 4
  switch i32 %38, label %59 [
    i32 0, label %39
    i32 4, label %54
  ]

39:                                               ; preds = %37
  br label %44

40:                                               ; preds = %3
  %41 = load i16, ptr %7, align 2
  %42 = zext i16 %41 to i32
  %43 = call i32 (ptr, ...) @error(ptr noundef @.str.9, ptr noundef @__func__.topology_g_topology_unpack, i32 noundef %42)
  br label %54

44:                                               ; preds = %39
  %45 = load ptr, ptr getelementptr inbounds nuw (%struct.slurm_topo_ops, ptr @ops, i32 0, i32 12), align 8
  %46 = load ptr, ptr %8, align 8
  %47 = getelementptr inbounds nuw %struct.dynamic_plugin_data, ptr %46, i32 0, i32 0
  %48 = load ptr, ptr %6, align 8
  %49 = load i16, ptr %7, align 2
  %50 = call i32 %45(ptr noundef %47, ptr noundef %48, i16 noundef zeroext %49)
  %51 = icmp ne i32 %50, 0
  br i1 %51, label %52, label %53

52:                                               ; preds = %44
  br label %54

53:                                               ; preds = %44
  store i32 0, ptr %4, align 4
  store i32 1, ptr %10, align 4
  br label %59

54:                                               ; preds = %37, %52, %40
  %55 = load ptr, ptr %8, align 8
  %56 = call i32 @topology_g_topology_free(ptr noundef %55)
  %57 = load ptr, ptr %5, align 8
  store ptr null, ptr %57, align 8
  %58 = call i32 (ptr, ...) @error(ptr noundef @.str.10, ptr noundef @__func__.topology_g_topology_unpack)
  store i32 -1, ptr %4, align 4
  store i32 1, ptr %10, align 4
  br label %59

59:                                               ; preds = %54, %53, %37
  call void @llvm.lifetime.end.p0(i64 8, ptr %8) #7
  %60 = load i32, ptr %4, align 4
  ret i32 %60
}