; Function Attrs: nounwind uwtable
define dso_local range(i32 -1, 1) i32 @topology_g_topology_unpack(ptr noundef writeonly captures(none) initializes((0, 8)) %0, ptr noundef %1, i16 noundef zeroext %2) local_unnamed_addr #0 {
  %4 = alloca ptr, align 8
  %5 = alloca i32, align 4
  %6 = tail call ptr @slurm_xcalloc(i64 noundef 1, i64 noundef 16, i1 noundef zeroext true, i1 noundef zeroext false, ptr noundef nonnull @.str.7, i32 noundef 318, ptr noundef nonnull @__func__.topology_g_topology_unpack) #9
  store ptr %6, ptr %0, align 8
  %7 = icmp ugt i16 %2, 10239
  br i1 %7, label %8, label %15

8:                                                ; preds = %3
  call void @llvm.lifetime.start.p0(i64 4, ptr nonnull %5) #9
  %9 = call i32 @unpack32(ptr noundef nonnull %5, ptr noundef %1) #9
  %.not = icmp eq i32 %9, 0
  br i1 %.not, label %10, label %.thread

10:                                               ; preds = %8
  %11 = load i32, ptr %5, align 4
  %12 = load i32, ptr @active_topo_id, align 4
  %.not16 = icmp eq i32 %11, %12
  br i1 %.not16, label %18, label %13

13:                                               ; preds = %10
  %14 = call i32 (ptr, ...) @error(ptr noundef nonnull @.str.8, ptr noundef nonnull @__func__.topology_g_topology_unpack, i32 noundef %11) #9
  br label %.thread

.thread:                                          ; preds = %13, %8
  call void @llvm.lifetime.end.p0(i64 4, ptr nonnull %5) #9
  br label %22

15:                                               ; preds = %3
  %16 = zext nneg i16 %2 to i32
  %17 = tail call i32 (ptr, ...) @error(ptr noundef nonnull @.str.9, ptr noundef nonnull @__func__.topology_g_topology_unpack, i32 noundef %16) #9
  br label %22

18:                                               ; preds = %10
  %19 = getelementptr inbounds nuw i8, ptr %6, i64 8
  store i32 %11, ptr %19, align 8
  call void @llvm.lifetime.end.p0(i64 4, ptr nonnull %5) #9
  %20 = load ptr, ptr getelementptr inbounds nuw (i8, ptr @ops, i64 96), align 8
  %21 = call i32 %20(ptr noundef %6, ptr noundef %1, i16 noundef zeroext %2) #9
  %.not17 = icmp eq i32 %21, 0
  br i1 %.not17, label %30, label %.thread21

.thread21:                                        ; preds = %18
  call void @llvm.lifetime.start.p0(i64 8, ptr nonnull %4)
  store ptr %6, ptr %4, align 8
  br label %23

22:                                               ; preds = %.thread, %15
  call void @llvm.lifetime.start.p0(i64 8, ptr nonnull %4)
  store ptr %6, ptr %4, align 8
  %.not.i = icmp eq ptr %6, null
  br i1 %.not.i, label %topology_g_topology_free.exit, label %23

23:                                               ; preds = %.thread21, %22
  %24 = load ptr, ptr %6, align 8
  %.not3.i = icmp eq ptr %24, null
  br i1 %.not3.i, label %28, label %25

25:                                               ; preds = %23
  %26 = load ptr, ptr getelementptr inbounds nuw (i8, ptr @ops, i64 64), align 8
  %27 = call i32 %26(ptr noundef nonnull %24) #9
  br label %28

28:                                               ; preds = %25, %23
  call void @slurm_xfree(ptr noundef nonnull %4) #9
  br label %topology_g_topology_free.exit

topology_g_topology_free.exit:                    ; preds = %22, %28
  call void @llvm.lifetime.end.p0(i64 8, ptr nonnull %4)
  store ptr null, ptr %0, align 8
  %29 = call i32 (ptr, ...) @error(ptr noundef nonnull @.str.10, ptr noundef nonnull @__func__.topology_g_topology_unpack) #9
  br label %30

30:                                               ; preds = %18, %topology_g_topology_free.exit
  %.012 = phi i32 [ -1, %topology_g_topology_free.exit ], [ 0, %18 ]
  ret i32 %.012
}